ARM GAS  C:\Users\MICHA~1\AppData\Local\Temp\ccd8KZh5.s 			page 1


   1              		.cpu cortex-m0plus
   2              		.eabi_attribute 20, 1	@ Tag_ABI_FP_denormal
   3              		.eabi_attribute 21, 1	@ Tag_ABI_FP_exceptions
   4              		.eabi_attribute 23, 3	@ Tag_ABI_FP_number_model
   5              		.eabi_attribute 24, 1	@ Tag_ABI_align8_needed
   6              		.eabi_attribute 25, 1	@ Tag_ABI_align8_preserved
   7              		.eabi_attribute 26, 1	@ Tag_ABI_enum_size
   8              		.eabi_attribute 30, 6	@ Tag_ABI_optimization_goals
   9              		.eabi_attribute 34, 0	@ Tag_CPU_unaligned_access
  10              		.eabi_attribute 18, 4	@ Tag_ABI_PCS_wchar_t
  11              		.file	"main.c"
  12              	@ GNU C99 (bleeding-edge-toolchain) version 6.3.0 (arm-none-eabi)
  13              	@	compiled by GNU C version 6.2.1 20160830, GMP version 6.1.2, MPFR version 3.1.5, MPC version 1.0.
  14              	@ GGC heuristics: --param ggc-min-expand=100 --param ggc-min-heapsize=131072
  15              	@ options passed:  -I . -imultilib armv6-m
  16              	@ -iprefix c:\stm32\arm-none-eabi-gcc-6.3.0-170107\bin\../lib/gcc/arm-none-eabi/6.3.0/
  17              	@ -isysroot c:\stm32\arm-none-eabi-gcc-6.3.0-170107\bin\../arm-none-eabi
  18              	@ -MD out/main.d -MF out/main.d -MP -MQ out/main.o -D__USES_INITFINI__
  19              	@ main.c -mcpu=cortex-m0plus -mthumb -auxbase-strip out/main.o -g -ggdb3
  20              	@ -O0 -Wall -Wstrict-prototypes -Wextra -std=gnu99 -ffunction-sections
  21              	@ -fdata-sections -fverbose-asm
  22              	@ options enabled:  -faggressive-loop-optimizations -fauto-inc-dec
  23              	@ -fchkp-check-incomplete-type -fchkp-check-read -fchkp-check-write
  24              	@ -fchkp-instrument-calls -fchkp-narrow-bounds -fchkp-optimize
  25              	@ -fchkp-store-bounds -fchkp-use-static-bounds
  26              	@ -fchkp-use-static-const-bounds -fchkp-use-wrappers -fcommon
  27              	@ -fdata-sections -fdelete-null-pointer-checks -fdwarf2-cfi-asm
  28              	@ -fearly-inlining -feliminate-unused-debug-types -ffunction-cse
  29              	@ -ffunction-sections -fgcse-lm -fgnu-runtime -fgnu-unique -fident
  30              	@ -finline-atomics -fira-hoist-pressure -fira-share-save-slots
  31              	@ -fira-share-spill-slots -fivopts -fkeep-static-consts
  32              	@ -fleading-underscore -flifetime-dse -flto-odr-type-merging -fmath-errno
  33              	@ -fmerge-debug-strings -fpeephole -fplt -fprefetch-loop-arrays
  34              	@ -freg-struct-return -fsched-critical-path-heuristic
  35              	@ -fsched-dep-count-heuristic -fsched-group-heuristic -fsched-interblock
  36              	@ -fsched-last-insn-heuristic -fsched-rank-heuristic -fsched-spec
  37              	@ -fsched-spec-insn-heuristic -fsched-stalled-insns-dep
  38              	@ -fsemantic-interposition -fshow-column -fsigned-zeros
  39              	@ -fsplit-ivs-in-unroller -fssa-backprop -fstdarg-opt
  40              	@ -fstrict-volatile-bitfields -fsync-libcalls -ftrapping-math -ftree-cselim
  41              	@ -ftree-forwprop -ftree-loop-if-convert -ftree-loop-im -ftree-loop-ivcanon
  42              	@ -ftree-loop-optimize -ftree-parallelize-loops= -ftree-phiprop
  43              	@ -ftree-reassoc -ftree-scev-cprop -funit-at-a-time -fverbose-asm
  44              	@ -fzero-initialized-in-bss -mlittle-endian -mpic-data-is-text-relative
  45              	@ -msched-prolog -mthumb -mvectorize-with-neon-quad
  46              	
  47              		.text
  48              	.Ltext0:
  49              		.cfi_sections	.debug_frame
  50              		.section	.text.main,"ax",%progbits
  51              		.align	1
  52              		.global	main
  53              		.syntax unified
  54              		.code	16
  55              		.thumb_func
  56              		.fpu softvfp
  57              		.type	main, %function
ARM GAS  C:\Users\MICHA~1\AppData\Local\Temp\ccd8KZh5.s 			page 2


  58              	main:
  59              	.LFB33:
  60              		.file 1 "main.c"
   1:main.c        **** /** \file main.c
   2:main.c        ****  * \brief Sample LPC1114 project
   3:main.c        ****  * \details This file holds a very basic code for LPC1114. This code configures
   4:main.c        ****  * flash access time, enables the PLL and all required clocks and peripherals
   5:main.c        ****  * to achieve the highest allowed frequency for LPC1114 (50MHz). Main code
   6:main.c        ****  * block just blinks the LED. The LED port and pin are defined in config.h
   7:main.c        ****  * file. Target core frequency and quartz crystal resonator frequency are
   8:main.c        ****  * defined there as well.
   9:main.c        ****  *
  10:main.c        ****  * \author Freddie Chopin, http://www.freddiechopin.info/
  11:main.c        ****  * \date 2012-01-08
  12:main.c        ****  */
  13:main.c        **** 
  14:main.c        **** /******************************************************************************
  15:main.c        **** * project: lpc1114_blink_led
  16:main.c        **** * chip: LPC1114
  17:main.c        **** * compiler: arm-none-eabi-gcc (Sourcery CodeBench Lite 2011.09-69) 4.6.1
  18:main.c        **** *
  19:main.c        **** * prefix: (none)
  20:main.c        **** *
  21:main.c        **** * available global functions:
  22:main.c        **** * 	int main(void)
  23:main.c        **** *
  24:main.c        **** * available local functions:
  25:main.c        **** * 	static void flash_access_time(uint32_t frequency)
  26:main.c        **** * 	static uint32_t pll_start(uint32_t crystal, uint32_t frequency)
  27:main.c        **** * 	static void system_init(void)
  28:main.c        **** *
  29:main.c        **** * available interrupt handlers:
  30:main.c        **** ******************************************************************************/
  31:main.c        **** 
  32:main.c        **** /*
  33:main.c        **** +=============================================================================+
  34:main.c        **** | includes
  35:main.c        **** +=============================================================================+
  36:main.c        **** */
  37:main.c        **** 
  38:main.c        **** #include <stdint.h>
  39:main.c        **** 
  40:main.c        **** #include "inc/stm32l053xx.h"
  41:main.c        **** 
  42:main.c        **** #include "config.h"
  43:main.c        **** 
  44:main.c        **** #include "hdr/hdr_syscon.h"
  45:main.c        **** 
  46:main.c        **** /*
  47:main.c        **** +=============================================================================+
  48:main.c        **** | module variables
  49:main.c        **** +=============================================================================+
  50:main.c        **** */
  51:main.c        **** 
  52:main.c        **** /*
  53:main.c        **** +=============================================================================+
  54:main.c        **** | local functions' declarations
ARM GAS  C:\Users\MICHA~1\AppData\Local\Temp\ccd8KZh5.s 			page 3


  55:main.c        **** +=============================================================================+
  56:main.c        **** */
  57:main.c        **** 
  58:main.c        **** static void flash_access_time(uint32_t frequency);
  59:main.c        **** static uint32_t pll_start(uint32_t crystal, uint32_t frequency);
  60:main.c        **** static void system_init(void);
  61:main.c        **** 
  62:main.c        **** /*
  63:main.c        **** +=============================================================================+
  64:main.c        **** | global functions
  65:main.c        **** +=============================================================================+
  66:main.c        **** */
  67:main.c        **** 
  68:main.c        **** /*------------------------------------------------------------------------*//**
  69:main.c        **** * \brief main code block
  70:main.c        **** * \details Call some static initialization functions and blink the led with
  71:main.c        **** * frequency defined via count_max variable.
  72:main.c        **** *//*-------------------------------------------------------------------------*/
  73:main.c        **** 
  74:main.c        **** int main(void)
  75:main.c        **** {
  61              		.loc 1 75 0
  62              		.cfi_startproc
  63 0000 80B5     		push	{r7, lr}	@
  64              		.cfi_def_cfa_offset 8
  65              		.cfi_offset 7, -8
  66              		.cfi_offset 14, -4
  67 0002 82B0     		sub	sp, sp, #8	@,,
  68              		.cfi_def_cfa_offset 16
  69 0004 00AF     		add	r7, sp, #0	@,,
  70              		.cfi_def_cfa_register 7
  76:main.c        **** 	volatile uint32_t count, count_max = 50000;	// with core frequency ~50MHz this gives ~1.5Hz blinki
  71              		.loc 1 76 0
  72 0006 194B     		ldr	r3, .L7	@ tmp126,
  73 0008 3B60     		str	r3, [r7]	@ tmp126, count_max
  77:main.c        **** 
  78:main.c        **** 	pll_start(CRYSTAL, FREQUENCY);			// start the PLL
  74              		.loc 1 78 0
  75 000a 194A     		ldr	r2, .L7+4	@ tmp127,
  76 000c 194B     		ldr	r3, .L7+8	@ tmp128,
  77 000e 1100     		movs	r1, r2	@, tmp127
  78 0010 1800     		movs	r0, r3	@, tmp128
  79 0012 FFF7FEFF 		bl	pll_start	@
  79:main.c        **** 	system_init();							// initialize other necessary elements
  80              		.loc 1 79 0
  81 0016 FFF7FEFF 		bl	system_init	@
  80:main.c        **** 
  81:main.c        **** 	GPIOA->MODER = (GPIOA->MODER & ~GPIO_MODER_MODE5) | GPIO_MODER_MODE5_0;
  82              		.loc 1 81 0
  83 001a A023     		movs	r3, #160	@ tmp137,
  84 001c DB05     		lsls	r3, r3, #23	@ _8, tmp137,
  85 001e A022     		movs	r2, #160	@ tmp138,
  86 0020 D205     		lsls	r2, r2, #23	@ _9, tmp138,
  87 0022 1268     		ldr	r2, [r2]	@ _10, _9->MODER
  88 0024 1449     		ldr	r1, .L7+12	@ tmp129,
  89 0026 0A40     		ands	r2, r1	@ _11, tmp129
  90 0028 8021     		movs	r1, #128	@ tmp139,
ARM GAS  C:\Users\MICHA~1\AppData\Local\Temp\ccd8KZh5.s 			page 4


  91 002a C900     		lsls	r1, r1, #3	@ tmp130, tmp139,
  92 002c 0A43     		orrs	r2, r1	@ _12, tmp130
  93 002e 1A60     		str	r2, [r3]	@ _12, _8->MODER
  94              	.L6:
  82:main.c        **** 
  83:main.c        **** 	while (1)
  84:main.c        **** 	{
  85:main.c        **** 		for (count = 0; count < count_max; count++);	// delay
  95              		.loc 1 85 0
  96 0030 0023     		movs	r3, #0	@ tmp131,
  97 0032 7B60     		str	r3, [r7, #4]	@ tmp131, count
  98 0034 02E0     		b	.L2	@
  99              	.L3:
 100              		.loc 1 85 0 is_stmt 0 discriminator 3
 101 0036 7B68     		ldr	r3, [r7, #4]	@ count.0_27, count
 102 0038 0133     		adds	r3, r3, #1	@ count.1_28,
 103 003a 7B60     		str	r3, [r7, #4]	@ count.1_28, count
 104              	.L2:
 105              		.loc 1 85 0 discriminator 1
 106 003c 7A68     		ldr	r2, [r7, #4]	@ count.2_15, count
 107 003e 3B68     		ldr	r3, [r7]	@ count_max.3_16, count_max
 108 0040 9A42     		cmp	r2, r3	@ count.2_15, count_max.3_16
 109 0042 F8D3     		bcc	.L3	@,
  86:main.c        **** 		GPIOA->BSRR  = 1<<5;
 110              		.loc 1 86 0 is_stmt 1
 111 0044 A023     		movs	r3, #160	@ tmp136,
 112 0046 DB05     		lsls	r3, r3, #23	@ _17, tmp136,
 113 0048 2022     		movs	r2, #32	@ tmp132,
 114 004a 9A61     		str	r2, [r3, #24]	@ tmp132, _17->BSRR
  87:main.c        **** 		for (count = 0; count < count_max; count++);	// delay
 115              		.loc 1 87 0
 116 004c 0023     		movs	r3, #0	@ tmp133,
 117 004e 7B60     		str	r3, [r7, #4]	@ tmp133, count
 118 0050 02E0     		b	.L4	@
 119              	.L5:
 120              		.loc 1 87 0 is_stmt 0 discriminator 3
 121 0052 7B68     		ldr	r3, [r7, #4]	@ count.4_22, count
 122 0054 0133     		adds	r3, r3, #1	@ count.5_23,
 123 0056 7B60     		str	r3, [r7, #4]	@ count.5_23, count
 124              	.L4:
 125              		.loc 1 87 0 discriminator 1
 126 0058 7A68     		ldr	r2, [r7, #4]	@ count.6_20, count
 127 005a 3B68     		ldr	r3, [r7]	@ count_max.7_21, count_max
 128 005c 9A42     		cmp	r2, r3	@ count.6_20, count_max.7_21
 129 005e F8D3     		bcc	.L5	@,
  88:main.c        **** 		GPIOA->BRR  = 1<<5;
 130              		.loc 1 88 0 is_stmt 1
 131 0060 A023     		movs	r3, #160	@ tmp135,
 132 0062 DB05     		lsls	r3, r3, #23	@ _25, tmp135,
 133 0064 2022     		movs	r2, #32	@ tmp134,
 134 0066 9A62     		str	r2, [r3, #40]	@ tmp134, _25->BRR
  85:main.c        **** 		GPIOA->BSRR  = 1<<5;
 135              		.loc 1 85 0
 136 0068 E2E7     		b	.L6	@
 137              	.L8:
 138 006a C046     		.align	2
 139              	.L7:
ARM GAS  C:\Users\MICHA~1\AppData\Local\Temp\ccd8KZh5.s 			page 5


 140 006c 50C30000 		.word	50000
 141 0070 006CDC02 		.word	48000000
 142 0074 00127A00 		.word	8000000
 143 0078 FFF3FFFF 		.word	-3073
 144              		.cfi_endproc
 145              	.LFE33:
 146              		.size	main, .-main
 147              		.section	.text.flash_access_time,"ax",%progbits
 148              		.align	1
 149              		.syntax unified
 150              		.code	16
 151              		.thumb_func
 152              		.fpu softvfp
 153              		.type	flash_access_time, %function
 154              	flash_access_time:
 155              	.LFB34:
  89:main.c        **** 	}
  90:main.c        **** }
  91:main.c        **** 
  92:main.c        **** /*
  93:main.c        **** +=============================================================================+
  94:main.c        **** | local functions
  95:main.c        **** +=============================================================================+
  96:main.c        **** */
  97:main.c        **** 
  98:main.c        **** /*------------------------------------------------------------------------*//**
  99:main.c        **** * \brief Configures flash access time.
 100:main.c        **** * \details Configures flash access time which allows the chip to run at higher
 101:main.c        **** * speeds.
 102:main.c        **** *
 103:main.c        **** * \param [in] frequency defines the target frequency of the core
 104:main.c        **** *//*-------------------------------------------------------------------------*/
 105:main.c        **** 
 106:main.c        **** static void flash_access_time(uint32_t frequency)
 107:main.c        **** {
 156              		.loc 1 107 0
 157              		.cfi_startproc
 158 0000 80B5     		push	{r7, lr}	@
 159              		.cfi_def_cfa_offset 8
 160              		.cfi_offset 7, -8
 161              		.cfi_offset 14, -4
 162 0002 82B0     		sub	sp, sp, #8	@,,
 163              		.cfi_def_cfa_offset 16
 164 0004 00AF     		add	r7, sp, #0	@,,
 165              		.cfi_def_cfa_register 7
 166 0006 7860     		str	r0, [r7, #4]	@ frequency, frequency
 108:main.c        **** 
 109:main.c        **** }
 167              		.loc 1 109 0
 168 0008 C046     		nop
 169 000a BD46     		mov	sp, r7	@,
 170 000c 02B0     		add	sp, sp, #8	@,,
 171              		@ sp needed	@
 172 000e 80BD     		pop	{r7, pc}
 173              		.cfi_endproc
 174              	.LFE34:
 175              		.size	flash_access_time, .-flash_access_time
ARM GAS  C:\Users\MICHA~1\AppData\Local\Temp\ccd8KZh5.s 			page 6


 176              		.section	.text.pll_start,"ax",%progbits
 177              		.align	1
 178              		.syntax unified
 179              		.code	16
 180              		.thumb_func
 181              		.fpu softvfp
 182              		.type	pll_start, %function
 183              	pll_start:
 184              	.LFB35:
 110:main.c        **** 
 111:main.c        **** /*------------------------------------------------------------------------*//**
 112:main.c        **** * \brief Starts the PLL.
 113:main.c        **** * \details Configure and enable PLL to achieve some frequency with some
 114:main.c        **** * crystal. Before the speed change flash access time is configured via
 115:main.c        **** * flash_access_time(). Main oscillator is configured and started. PLL
 116:main.c        **** * parameters m and p are based on function parameters. The PLL is configured,
 117:main.c        **** * started and selected as the main clock. AHB clock divider is set to 1.
 118:main.c        **** *
 119:main.c        **** * \param [in] crystal is the frequency of the crystal resonator connected to
 120:main.c        **** * the LPC1114 chip.
 121:main.c        **** * \param [in] frequency is the desired target frequency after enabling the PLL
 122:main.c        **** *
 123:main.c        **** * \return real frequency that was set
 124:main.c        **** *//*-------------------------------------------------------------------------*/
 125:main.c        **** 
 126:main.c        **** static uint32_t pll_start(uint32_t crystal, uint32_t frequency)
 127:main.c        **** {
 185              		.loc 1 127 0
 186              		.cfi_startproc
 187 0000 80B5     		push	{r7, lr}	@
 188              		.cfi_def_cfa_offset 8
 189              		.cfi_offset 7, -8
 190              		.cfi_offset 14, -4
 191 0002 82B0     		sub	sp, sp, #8	@,,
 192              		.cfi_def_cfa_offset 16
 193 0004 00AF     		add	r7, sp, #0	@,,
 194              		.cfi_def_cfa_register 7
 195 0006 7860     		str	r0, [r7, #4]	@ crystal, crystal
 196 0008 3960     		str	r1, [r7]	@ frequency, frequency
 128:main.c        **** 		return frequency;
 197              		.loc 1 128 0
 198 000a 3B68     		ldr	r3, [r7]	@ _2, frequency
 129:main.c        **** }
 199              		.loc 1 129 0
 200 000c 1800     		movs	r0, r3	@, <retval>
 201 000e BD46     		mov	sp, r7	@,
 202 0010 02B0     		add	sp, sp, #8	@,,
 203              		@ sp needed	@
 204 0012 80BD     		pop	{r7, pc}
 205              		.cfi_endproc
 206              	.LFE35:
 207              		.size	pll_start, .-pll_start
 208              		.section	.text.system_init,"ax",%progbits
 209              		.align	1
 210              		.syntax unified
 211              		.code	16
 212              		.thumb_func
ARM GAS  C:\Users\MICHA~1\AppData\Local\Temp\ccd8KZh5.s 			page 7


 213              		.fpu softvfp
 214              		.type	system_init, %function
 215              	system_init:
 216              	.LFB36:
 130:main.c        **** 
 131:main.c        **** /*------------------------------------------------------------------------*//**
 132:main.c        **** * \brief Initializes system.
 133:main.c        **** * \details Enables clock for IO configuration block.
 134:main.c        **** *//*-------------------------------------------------------------------------*/
 135:main.c        **** 
 136:main.c        **** static void system_init(void)
 137:main.c        **** {
 217              		.loc 1 137 0
 218              		.cfi_startproc
 219 0000 80B5     		push	{r7, lr}	@
 220              		.cfi_def_cfa_offset 8
 221              		.cfi_offset 7, -8
 222              		.cfi_offset 14, -4
 223 0002 00AF     		add	r7, sp, #0	@,,
 224              		.cfi_def_cfa_register 7
 138:main.c        **** 	RCC->IOPENR |= RCC_IOPENR_GPIOAEN;
 225              		.loc 1 138 0
 226 0004 044B     		ldr	r3, .L13	@ _1,
 227 0006 044A     		ldr	r2, .L13	@ _2,
 228 0008 D26A     		ldr	r2, [r2, #44]	@ _4, _2->IOPENR
 229 000a 0121     		movs	r1, #1	@ tmp114,
 230 000c 0A43     		orrs	r2, r1	@ _5, tmp114
 231 000e DA62     		str	r2, [r3, #44]	@ _5, _1->IOPENR
 139:main.c        **** }
 232              		.loc 1 139 0
 233 0010 C046     		nop
 234 0012 BD46     		mov	sp, r7	@,
 235              		@ sp needed	@
 236 0014 80BD     		pop	{r7, pc}
 237              	.L14:
 238 0016 C046     		.align	2
 239              	.L13:
 240 0018 00100240 		.word	1073876992
 241              		.cfi_endproc
 242              	.LFE36:
 243              		.size	system_init, .-system_init
 244              		.text
 245              	.Letext0:
 246              		.file 2 "c:\\stm32\\arm-none-eabi-gcc-6.3.0-170107\\arm-none-eabi\\include\\machine\\_default_type
 247              		.file 3 "c:\\stm32\\arm-none-eabi-gcc-6.3.0-170107\\arm-none-eabi\\include\\sys\\_stdint.h"
 248              		.file 4 "inc/stm32l053xx.h"
 249              		.file 5 "inc/system_stm32l0xx.h"